target datalayout = "e-m:e-p270:32:32-p271:32:32-p272:64:64-i64:64-i128:128-f80:128-n8:16:32:64-S128"
target triple = "x86_64-pc-linux-gnu"

%"class.cvc5::internal::NodeTemplate" = type { ptr }
%"class.cvc5::internal::theory::arith::PolyNorm" = type { %"class.std::map" }
%"class.std::map" = type { %"class.std::_Rb_tree" }
%"class.std::_Rb_tree" = type { %"struct.std::_Rb_tree<cvc5::internal::NodeTemplate<true>, std::pair<const cvc5::internal::NodeTemplate<true>, cvc5::internal::Rational>, std::_Select1st<std::pair<const cvc5::internal::NodeTemplate<true>, cvc5::internal::Rational>>, std::less<cvc5::internal::NodeTemplate<true>>>::_Rb_tree_impl" }
%"struct.std::_Rb_tree<cvc5::internal::NodeTemplate<true>, std::pair<const cvc5::internal::NodeTemplate<true>, cvc5::internal::Rational>, std::_Select1st<std::pair<const cvc5::internal::NodeTemplate<true>, cvc5::internal::Rational>>, std::less<cvc5::internal::NodeTemplate<true>>>::_Rb_tree_impl" = type { [8 x i8], %"struct.std::_Rb_tree_header" }
%"struct.std::_Rb_tree_header" = type { %"struct.std::_Rb_tree_node_base", i64 }
%"struct.std::_Rb_tree_node_base" = type { i32, ptr, ptr, ptr }
%"class.cvc5::internal::TypeNode" = type { ptr }

; Function Attrs: inlinehint mustprogress nounwind uwtable
define linkonce_odr hidden void @_ZNK4cvc58internal12NodeTemplateILb0EE21assertTNodeNotExpiredEv(ptr noundef nonnull align 8 dereferenceable(8) %0) #8 comdat align 2 {
  %2 = alloca ptr, align 8
  store ptr %0, ptr %2, align 8, !tbaa !8
  ret void
}

; Function Attrs: mustprogress nounwind uwtable
define linkonce_odr hidden void @_ZN4cvc58internal12NodeTemplateILb0EED2Ev(ptr noundef nonnull align 8 dereferenceable(8) %0) unnamed_addr #6 comdat align 2 {
  %2 = alloca ptr, align 8
  store ptr %0, ptr %2, align 8, !tbaa !8
  ret void
}

; Function Attrs: mustprogress nounwind uwtable
define linkonce_odr hidden void @_ZN4cvc58internal12NodeTemplateILb0EEC2ERKS2_(ptr noundef nonnull align 8 dereferenceable(8) %0, ptr noundef nonnull align 8 dereferenceable(8) %1) unnamed_addr #6 comdat align 2 {
  %3 = alloca ptr, align 8
  %4 = alloca ptr, align 8
  store ptr %0, ptr %3, align 8, !tbaa !8
  store ptr %1, ptr %4, align 8, !tbaa !8
  %5 = load ptr, ptr %3, align 8
  %6 = load ptr, ptr %4, align 8, !tbaa !8
  %7 = getelementptr inbounds nuw %"class.cvc5::internal::NodeTemplate", ptr %6, i32 0, i32 0
  %8 = load ptr, ptr %7, align 8, !tbaa !28
  %9 = getelementptr inbounds nuw %"class.cvc5::internal::NodeTemplate", ptr %5, i32 0, i32 0
  store ptr %8, ptr %9, align 8, !tbaa !28
  ret void
}

; Function Attrs: mustprogress nounwind uwtable
define linkonce_odr hidden noundef zeroext i1 @_ZNK4cvc58internal12NodeTemplateILb0EEeqILb0EEEbRKNS1_IXT_EEE(ptr noundef nonnull align 8 dereferenceable(8) %0, ptr noundef nonnull align 8 dereferenceable(8) %1) #6 comdat align 2 {
  %3 = alloca ptr, align 8
  %4 = alloca ptr, align 8
  store ptr %0, ptr %3, align 8, !tbaa !8
  store ptr %1, ptr %4, align 8, !tbaa !8
  %5 = load ptr, ptr %3, align 8
  call void @_ZNK4cvc58internal12NodeTemplateILb0EE21assertTNodeNotExpiredEv(ptr noundef nonnull align 8 dereferenceable(8) %5)
  %6 = load ptr, ptr %4, align 8, !tbaa !8
  call void @_ZNK4cvc58internal12NodeTemplateILb0EE21assertTNodeNotExpiredEv(ptr noundef nonnull align 8 dereferenceable(8) %6)
  %7 = getelementptr inbounds nuw %"class.cvc5::internal::NodeTemplate", ptr %5, i32 0, i32 0
  %8 = load ptr, ptr %7, align 8, !tbaa !28
  %9 = load ptr, ptr %4, align 8, !tbaa !8
  %10 = getelementptr inbounds nuw %"class.cvc5::internal::NodeTemplate", ptr %9, i32 0, i32 0
  %11 = load ptr, ptr %10, align 8, !tbaa !28
  %12 = icmp eq ptr %8, %11
  ret i1 %12
}

; Function Attrs: mustprogress uwtable
define hidden noundef zeroext i1 @_ZN4cvc58internal6theory5arith8PolyNorm15isArithPolyNormENS0_12NodeTemplateILb0EEES5_(ptr noundef %0, ptr noundef %1) #4 align 2 personality ptr @__gxx_personality_v0 {
  %3 = alloca i1, align 1
  %4 = alloca ptr, align 8
  %5 = alloca ptr, align 8
  %6 = alloca %"class.cvc5::internal::TypeNode", align 8
  %7 = alloca ptr, align 8
  %8 = alloca i32, align 4
  %9 = alloca i32, align 4
  %10 = alloca %"class.cvc5::internal::theory::arith::PolyNorm", align 8
  %11 = alloca %"class.cvc5::internal::NodeTemplate", align 8
  %12 = alloca %"class.cvc5::internal::theory::arith::PolyNorm", align 8
  %13 = alloca %"class.cvc5::internal::NodeTemplate", align 8
  store ptr %0, ptr %4, align 8, !tbaa !8
  store ptr %1, ptr %5, align 8, !tbaa !8
  call void @llvm.lifetime.start.p0(i64 8, ptr %6) #3
  call void @_ZNK4cvc58internal12NodeTemplateILb0EE7getTypeEb(ptr dead_on_unwind writable sret(%"class.cvc5::internal::TypeNode") align 8 %6, ptr noundef nonnull align 8 dereferenceable(8) %0, i1 noundef zeroext false)
  %14 = invoke noundef zeroext i1 @_ZNK4cvc58internal12NodeTemplateILb0EEeqILb0EEEbRKNS1_IXT_EEE(ptr noundef nonnull align 8 dereferenceable(8) %0, ptr noundef nonnull align 8 dereferenceable(8) %1)
          to label %15 unwind label %17

15:                                               ; preds = %2
  br i1 %14, label %16, label %21

16:                                               ; preds = %15
  store i1 true, ptr %3, align 1
  store i32 1, ptr %9, align 4
  br label %50

17:                                               ; preds = %2
  %18 = landingpad { ptr, i32 }
          cleanup
  %19 = extractvalue { ptr, i32 } %18, 0
  store ptr %19, ptr %7, align 8
  %20 = extractvalue { ptr, i32 } %18, 1
  store i32 %20, ptr %8, align 4
  br label %52

21:                                               ; preds = %15
  call void @llvm.lifetime.start.p0(i64 48, ptr %10) #3
  invoke void @_ZN4cvc58internal12NodeTemplateILb0EEC2ERKS2_(ptr noundef nonnull align 8 dereferenceable(8) %11, ptr noundef nonnull align 8 dereferenceable(8) %0)
          to label %22 unwind label %28

22:                                               ; preds = %21
  invoke void @_ZN4cvc58internal6theory5arith8PolyNorm10mkPolyNormENS0_12NodeTemplateILb0EEE(ptr dead_on_unwind writable sret(%"class.cvc5::internal::theory::arith::PolyNorm") align 8 %10, ptr noundef %11)
          to label %23 unwind label %32

23:                                               ; preds = %22
  call void @_ZN4cvc58internal12NodeTemplateILb0EED2Ev(ptr noundef nonnull align 8 dereferenceable(8) %11) #3
  call void @llvm.lifetime.start.p0(i64 48, ptr %12) #3
  invoke void @_ZN4cvc58internal12NodeTemplateILb0EEC2ERKS2_(ptr noundef nonnull align 8 dereferenceable(8) %13, ptr noundef nonnull align 8 dereferenceable(8) %1)
          to label %24 unwind label %36

24:                                               ; preds = %23
  invoke void @_ZN4cvc58internal6theory5arith8PolyNorm10mkPolyNormENS0_12NodeTemplateILb0EEE(ptr dead_on_unwind writable sret(%"class.cvc5::internal::theory::arith::PolyNorm") align 8 %12, ptr noundef %13)
          to label %25 unwind label %40

25:                                               ; preds = %24
  call void @_ZN4cvc58internal12NodeTemplateILb0EED2Ev(ptr noundef nonnull align 8 dereferenceable(8) %13) #3
  %26 = invoke noundef zeroext i1 @_ZN4cvc58internal6theory5arith8PolyNorm21areEqualPolyNormTypedERKNS0_8TypeNodeERS3_S7_(ptr noundef nonnull align 8 dereferenceable(8) %6, ptr noundef nonnull align 8 dereferenceable(48) %10, ptr noundef nonnull align 8 dereferenceable(48) %12)
          to label %27 unwind label %44

27:                                               ; preds = %25
  store i1 %26, ptr %3, align 1
  store i32 1, ptr %9, align 4
  call void @_ZN4cvc58internal6theory5arith8PolyNormD2Ev(ptr noundef nonnull align 8 dereferenceable(48) %12) #3
  call void @llvm.lifetime.end.p0(i64 48, ptr %12) #3
  call void @_ZN4cvc58internal6theory5arith8PolyNormD2Ev(ptr noundef nonnull align 8 dereferenceable(48) %10) #3
  call void @llvm.lifetime.end.p0(i64 48, ptr %10) #3
  br label %50

28:                                               ; preds = %21
  %29 = landingpad { ptr, i32 }
          cleanup
  %30 = extractvalue { ptr, i32 } %29, 0
  store ptr %30, ptr %7, align 8
  %31 = extractvalue { ptr, i32 } %29, 1
  store i32 %31, ptr %8, align 4
  br label %49

32:                                               ; preds = %22
  %33 = landingpad { ptr, i32 }
          cleanup
  %34 = extractvalue { ptr, i32 } %33, 0
  store ptr %34, ptr %7, align 8
  %35 = extractvalue { ptr, i32 } %33, 1
  store i32 %35, ptr %8, align 4
  call void @_ZN4cvc58internal12NodeTemplateILb0EED2Ev(ptr noundef nonnull align 8 dereferenceable(8) %11) #3
  br label %49

36:                                               ; preds = %23
  %37 = landingpad { ptr, i32 }
          cleanup
  %38 = extractvalue { ptr, i32 } %37, 0
  store ptr %38, ptr %7, align 8
  %39 = extractvalue { ptr, i32 } %37, 1
  store i32 %39, ptr %8, align 4
  br label %48

40:                                               ; preds = %24
  %41 = landingpad { ptr, i32 }
          cleanup
  %42 = extractvalue { ptr, i32 } %41, 0
  store ptr %42, ptr %7, align 8
  %43 = extractvalue { ptr, i32 } %41, 1
  store i32 %43, ptr %8, align 4
  call void @_ZN4cvc58internal12NodeTemplateILb0EED2Ev(ptr noundef nonnull align 8 dereferenceable(8) %13) #3
  br label %48

44:                                               ; preds = %25
  %45 = landingpad { ptr, i32 }
          cleanup
  %46 = extractvalue { ptr, i32 } %45, 0
  store ptr %46, ptr %7, align 8
  %47 = extractvalue { ptr, i32 } %45, 1
  store i32 %47, ptr %8, align 4
  call void @_ZN4cvc58internal6theory5arith8PolyNormD2Ev(ptr noundef nonnull align 8 dereferenceable(48) %12) #3
  br label %48

48:                                               ; preds = %44, %40, %36
  call void @llvm.lifetime.end.p0(i64 48, ptr %12) #3
  call void @_ZN4cvc58internal6theory5arith8PolyNormD2Ev(ptr noundef nonnull align 8 dereferenceable(48) %10) #3
  br label %49

49:                                               ; preds = %48, %32, %28
  call void @llvm.lifetime.end.p0(i64 48, ptr %10) #3
  br label %52

50:                                               ; preds = %27, %16
  call void @_ZN4cvc58internal8TypeNodeD2Ev(ptr noundef nonnull align 8 dereferenceable(8) %6) #3
  call void @llvm.lifetime.end.p0(i64 8, ptr %6) #3
  %51 = load i1, ptr %3, align 1
  ret i1 %51

52:                                               ; preds = %49, %17
  call void @_ZN4cvc58internal8TypeNodeD2Ev(ptr noundef nonnull align 8 dereferenceable(8) %6) #3
  call void @llvm.lifetime.end.p0(i64 8, ptr %6) #3
  br label %53

53:                                               ; preds = %52
  %54 = load ptr, ptr %7, align 8
  %55 = load i32, ptr %8, align 4
  %56 = insertvalue { ptr, i32 } poison, ptr %54, 0
  %57 = insertvalue { ptr, i32 } %56, i32 %55, 1
  resume { ptr, i32 } %57
}