; Function Attrs: mustprogress uwtable
define hidden noundef zeroext i1 @_ZN4cvc58internal6theory5arith8PolyNorm15isArithPolyNormENS0_12NodeTemplateILb0EEES5_(ptr noundef nonnull %0, ptr noundef readonly captures(none) %1) local_unnamed_addr #3 align 2 personality ptr @__gxx_personality_v0 {
  %3 = alloca %"class.cvc5::internal::TypeNode", align 8
  %4 = alloca %"class.cvc5::internal::theory::arith::PolyNorm", align 8
  %5 = alloca %"class.cvc5::internal::NodeTemplate", align 8
  %6 = alloca %"class.cvc5::internal::theory::arith::PolyNorm", align 8
  %7 = alloca %"class.cvc5::internal::NodeTemplate", align 8
  call void @llvm.lifetime.start.p0(i64 8, ptr nonnull %3) #26
  call void @_ZNK4cvc58internal12NodeTemplateILb0EE7getTypeEb(ptr dead_on_unwind nonnull writable sret(%"class.cvc5::internal::TypeNode") align 8 %3, ptr noundef nonnull align 8 dereferenceable(8) %0, i1 noundef zeroext false)
  %8 = load ptr, ptr %0, align 8, !tbaa !11
  %9 = load ptr, ptr %1, align 8, !tbaa !11
  %10 = icmp eq ptr %8, %9
  br i1 %10, label %35, label %11

11:                                               ; preds = %2
  call void @llvm.lifetime.start.p0(i64 48, ptr nonnull %4) #26
  store ptr %8, ptr %5, align 8, !tbaa !11
  invoke void @_ZN4cvc58internal6theory5arith8PolyNorm10mkPolyNormENS0_12NodeTemplateILb0EEE(ptr dead_on_unwind nonnull writable sret(%"class.cvc5::internal::theory::arith::PolyNorm") align 8 %4, ptr noundef nonnull %5)
          to label %12 unwind label %27

12:                                               ; preds = %11
  call void @llvm.lifetime.start.p0(i64 48, ptr nonnull %6) #26
  %13 = load ptr, ptr %1, align 8, !tbaa !11
  store ptr %13, ptr %7, align 8, !tbaa !11
  invoke void @_ZN4cvc58internal6theory5arith8PolyNorm10mkPolyNormENS0_12NodeTemplateILb0EEE(ptr dead_on_unwind nonnull writable sret(%"class.cvc5::internal::theory::arith::PolyNorm") align 8 %6, ptr noundef nonnull %7)
          to label %14 unwind label %29

14:                                               ; preds = %12
  %15 = invoke noundef zeroext i1 @_ZN4cvc58internal6theory5arith8PolyNorm21areEqualPolyNormTypedERKNS0_8TypeNodeERS3_S7_(ptr noundef nonnull align 8 dereferenceable(8) %3, ptr noundef nonnull align 8 dereferenceable(48) %4, ptr noundef nonnull align 8 dereferenceable(48) %6)
          to label %16 unwind label %31

16:                                               ; preds = %14
  %17 = getelementptr inbounds nuw i8, ptr %6, i64 16
  %18 = load ptr, ptr %17, align 8, !tbaa !16
  invoke void @_ZNSt8_Rb_treeIN4cvc58internal12NodeTemplateILb1EEESt4pairIKS3_NS1_8RationalEESt10_Select1stIS7_ESt4lessIS3_ESaIS7_EE8_M_eraseEPSt13_Rb_tree_nodeIS7_E(ptr noundef nonnull align 8 dereferenceable(48) %6, ptr noundef %18)
          to label %_ZN4cvc58internal6theory5arith8PolyNormD2Ev.exit unwind label %19

19:                                               ; preds = %16
  %20 = landingpad { ptr, i32 }
          catch ptr null
  %21 = extractvalue { ptr, i32 } %20, 0
  call void @__clang_call_terminate(ptr %21) #25
  unreachable

_ZN4cvc58internal6theory5arith8PolyNormD2Ev.exit: ; preds = %16
  call void @llvm.lifetime.end.p0(i64 48, ptr nonnull %6) #26
  %22 = getelementptr inbounds nuw i8, ptr %4, i64 16
  %23 = load ptr, ptr %22, align 8, !tbaa !16
  invoke void @_ZNSt8_Rb_treeIN4cvc58internal12NodeTemplateILb1EEESt4pairIKS3_NS1_8RationalEESt10_Select1stIS7_ESt4lessIS3_ESaIS7_EE8_M_eraseEPSt13_Rb_tree_nodeIS7_E(ptr noundef nonnull align 8 dereferenceable(48) %4, ptr noundef %23)
          to label %_ZN4cvc58internal6theory5arith8PolyNormD2Ev.exit7 unwind label %24

24:                                               ; preds = %_ZN4cvc58internal6theory5arith8PolyNormD2Ev.exit
  %25 = landingpad { ptr, i32 }
          catch ptr null
  %26 = extractvalue { ptr, i32 } %25, 0
  call void @__clang_call_terminate(ptr %26) #25
  unreachable

_ZN4cvc58internal6theory5arith8PolyNormD2Ev.exit7: ; preds = %_ZN4cvc58internal6theory5arith8PolyNormD2Ev.exit
  call void @llvm.lifetime.end.p0(i64 48, ptr nonnull %4) #26
  br label %35

27:                                               ; preds = %11
  %28 = landingpad { ptr, i32 }
          cleanup
  br label %34

29:                                               ; preds = %12
  %30 = landingpad { ptr, i32 }
          cleanup
  br label %33

31:                                               ; preds = %14
  %32 = landingpad { ptr, i32 }
          cleanup
  call void @_ZN4cvc58internal6theory5arith8PolyNormD2Ev(ptr noundef nonnull align 8 dereferenceable(48) %6) #26
  br label %33

33:                                               ; preds = %31, %29
  %.pn = phi { ptr, i32 } [ %32, %31 ], [ %30, %29 ]
  call void @llvm.lifetime.end.p0(i64 48, ptr nonnull %6) #26
  call void @_ZN4cvc58internal6theory5arith8PolyNormD2Ev(ptr noundef nonnull align 8 dereferenceable(48) %4) #26
  br label %34

34:                                               ; preds = %33, %27
  %.pn.pn = phi { ptr, i32 } [ %.pn, %33 ], [ %28, %27 ]
  call void @llvm.lifetime.end.p0(i64 48, ptr nonnull %4) #26
  call void @_ZN4cvc58internal8TypeNodeD2Ev(ptr noundef nonnull align 8 dereferenceable(8) %3) #26
  call void @llvm.lifetime.end.p0(i64 8, ptr nonnull %3) #26
  resume { ptr, i32 } %.pn.pn

35:                                               ; preds = %2, %_ZN4cvc58internal6theory5arith8PolyNormD2Ev.exit7
  %.04 = phi i1 [ %15, %_ZN4cvc58internal6theory5arith8PolyNormD2Ev.exit7 ], [ true, %2 ]
  %36 = load ptr, ptr %3, align 8, !tbaa !124
  %37 = load i64, ptr %36, align 8
  %38 = and i64 %37, 1152920405095219200
  %.not.i.i = icmp eq i64 %38, 1152920405095219200
  br i1 %.not.i.i, label %_ZN4cvc58internal8TypeNodeD2Ev.exit, label %39, !prof !15

39:                                               ; preds = %35
  %40 = add i64 %37, 1152920405095219200
  %41 = and i64 %40, 1152920405095219200
  %42 = and i64 %37, -1152920405095219201
  %43 = or disjoint i64 %41, %42
  store i64 %43, ptr %36, align 8
  %44 = icmp eq i64 %41, 0
  br i1 %44, label %45, label %_ZN4cvc58internal8TypeNodeD2Ev.exit, !prof !15

45:                                               ; preds = %39
  invoke void @_ZN4cvc58internal4expr9NodeValue15markForDeletionEv(ptr noundef nonnull align 8 dereferenceable(24) %36)
          to label %_ZN4cvc58internal8TypeNodeD2Ev.exit unwind label %46

46:                                               ; preds = %45
  %47 = landingpad { ptr, i32 }
          catch ptr null
  %48 = extractvalue { ptr, i32 } %47, 0
  call void @__clang_call_terminate(ptr %48) #25
  unreachable

_ZN4cvc58internal8TypeNodeD2Ev.exit:              ; preds = %35, %39, %45
  call void @llvm.lifetime.end.p0(i64 8, ptr nonnull %3) #26
  ret i1 %.04
}